target datalayout = "e-m:e-p270:32:32-p271:32:32-p272:64:64-i64:64-i128:128-f80:128-n8:16:32:64-S128"
target triple = "x86_64-pc-linux-gnu"

%struct.CVodeMemRec = type { double, ptr, ptr, i32, i32, i32, double, double, ptr, i32, ptr, ptr, i32, ptr, i32, i32, double, double, ptr, i32, i32, i32, ptr, ptr, ptr, i32, i32, ptr, ptr, ptr, i32, double, i32, i32, double, ptr, ptr, i32, ptr, ptr, i32, i32, i32, double, ptr, ptr, [13 x ptr], ptr, ptr, ptr, ptr, ptr, [13 x ptr], ptr, ptr, ptr, ptr, [13 x ptr], ptr, ptr, ptr, ptr, ptr, i32, [13 x ptr], ptr, ptr, ptr, ptr, ptr, i32, double, i32, i32, i32, i32, i32, double, double, double, double, double, double, double, double, [14 x double], [6 x double], [13 x double], double, double, double, double, double, double, double, double, double, double, double, i32, ptr, i32, i64, i32, i32, i32, i32, i32, double, double, double, i64, i64, i64, i64, i64, i64, i64, i64, i64, ptr, i64, i64, ptr, i64, i64, i64, i64, i64, i64, i32, i64, i64, i64, i64, i64, i64, double, double, double, ptr, ptr, ptr, ptr, ptr, i32, i32, i64, double, double, double, i32, double, i32, i32, i32, i32, i32, i32, i32, i32, i32, i32, i32, i32, i32, i32, i32, i32, ptr, ptr, ptr, i32, [6 x [4 x double]], i32, i64, ptr, i32, ptr, ptr, double, double, double, ptr, ptr, ptr, double, double, i32, i32, i64, ptr, i32, i32, ptr, i32 }
%struct.CVadjMemRec = type { double, double, i32, i32, double, ptr, i32, ptr, i32, ptr, i32, ptr, i64, ptr, i64, i32, ptr, ptr, ptr, ptr, i32, i32, i32, i32, [13 x ptr], [13 x ptr], [13 x double], ptr, ptr, i64 }
%struct.CVodeBMemRec = type { i32, double, ptr, i32, i32, ptr, ptr, ptr, ptr, ptr, ptr, ptr, ptr, ptr, double, ptr, ptr }

@.str = private unnamed_addr constant [7 x i8] c"CVODEA\00", align 1
@.str.2 = private unnamed_addr constant [26 x i8] c"cvode_mem = NULL illegal.\00", align 1
@.str.7 = private unnamed_addr constant [55 x i8] c"Illegal attempt to call before calling CVodeAdjMalloc.\00", align 1
@.str.14 = private unnamed_addr constant [25 x i8] c"Illegal value for which.\00", align 1
@.str.32 = private unnamed_addr constant [14 x i8] c"CVodeGetQuadB\00", align 1

; Function Attrs: nounwind uwtable
define i32 @CVodeGetQuadB(ptr noundef %0, i32 noundef %1, ptr noundef %2, ptr noundef %3) #0 {
  %5 = alloca i32, align 4
  %6 = alloca ptr, align 8
  %7 = alloca i32, align 4
  %8 = alloca ptr, align 8
  %9 = alloca ptr, align 8
  %10 = alloca ptr, align 8
  %11 = alloca ptr, align 8
  %12 = alloca ptr, align 8
  %13 = alloca ptr, align 8
  %14 = alloca i64, align 8
  %15 = alloca i32, align 4
  %16 = alloca i32, align 4
  store ptr %0, ptr %6, align 8, !tbaa !3
  store i32 %1, ptr %7, align 4, !tbaa !9
  store ptr %2, ptr %8, align 8, !tbaa !139
  store ptr %3, ptr %9, align 8, !tbaa !72
  call void @llvm.lifetime.start.p0(i64 8, ptr %10) #5
  call void @llvm.lifetime.start.p0(i64 8, ptr %11) #5
  call void @llvm.lifetime.start.p0(i64 8, ptr %12) #5
  call void @llvm.lifetime.start.p0(i64 8, ptr %13) #5
  call void @llvm.lifetime.start.p0(i64 8, ptr %14) #5
  call void @llvm.lifetime.start.p0(i64 4, ptr %15) #5
  %17 = load ptr, ptr %6, align 8, !tbaa !3
  %18 = icmp eq ptr %17, null
  br i1 %18, label %19, label %20

19:                                               ; preds = %4
  call void (ptr, i32, ptr, ptr, ptr, ...) @cvProcessError(ptr noundef null, i32 noundef -21, ptr noundef @.str, ptr noundef @.str.32, ptr noundef @.str.2)
  store i32 -21, ptr %5, align 4
  store i32 1, ptr %16, align 4
  br label %84

20:                                               ; preds = %4
  %21 = load ptr, ptr %6, align 8, !tbaa !3
  store ptr %21, ptr %10, align 8, !tbaa !11
  %22 = load ptr, ptr %10, align 8, !tbaa !11
  %23 = getelementptr inbounds nuw %struct.CVodeMemRec, ptr %22, i32 0, i32 195
  %24 = load i32, ptr %23, align 8, !tbaa !53
  %25 = icmp eq i32 %24, 0
  br i1 %25, label %26, label %28

26:                                               ; preds = %20
  %27 = load ptr, ptr %10, align 8, !tbaa !11
  call void (ptr, i32, ptr, ptr, ptr, ...) @cvProcessError(ptr noundef %27, i32 noundef -101, ptr noundef @.str, ptr noundef @.str.32, ptr noundef @.str.7)
  store i32 -101, ptr %5, align 4
  store i32 1, ptr %16, align 4
  br label %84

28:                                               ; preds = %20
  %29 = load ptr, ptr %10, align 8, !tbaa !11
  %30 = getelementptr inbounds nuw %struct.CVodeMemRec, ptr %29, i32 0, i32 194
  %31 = load ptr, ptr %30, align 8, !tbaa !15
  store ptr %31, ptr %11, align 8, !tbaa !13
  %32 = load i32, ptr %7, align 4, !tbaa !9
  %33 = load ptr, ptr %11, align 8, !tbaa !13
  %34 = getelementptr inbounds nuw %struct.CVadjMemRec, ptr %33, i32 0, i32 6
  %35 = load i32, ptr %34, align 8, !tbaa !48
  %36 = icmp sge i32 %32, %35
  br i1 %36, label %37, label %39

37:                                               ; preds = %28
  %38 = load ptr, ptr %10, align 8, !tbaa !11
  call void (ptr, i32, ptr, ptr, ptr, ...) @cvProcessError(ptr noundef %38, i32 noundef -22, ptr noundef @.str, ptr noundef @.str.32, ptr noundef @.str.14)
  store i32 -22, ptr %5, align 4
  store i32 1, ptr %16, align 4
  br label %84

39:                                               ; preds = %28
  %40 = load ptr, ptr %11, align 8, !tbaa !13
  %41 = getelementptr inbounds nuw %struct.CVadjMemRec, ptr %40, i32 0, i32 5
  %42 = load ptr, ptr %41, align 8, !tbaa !46
  store ptr %42, ptr %12, align 8, !tbaa !132
  br label %43

43:                                               ; preds = %53, %39
  %44 = load ptr, ptr %12, align 8, !tbaa !132
  %45 = icmp ne ptr %44, null
  br i1 %45, label %46, label %57

46:                                               ; preds = %43
  %47 = load i32, ptr %7, align 4, !tbaa !9
  %48 = load ptr, ptr %12, align 8, !tbaa !132
  %49 = getelementptr inbounds nuw %struct.CVodeBMemRec, ptr %48, i32 0, i32 0
  %50 = load i32, ptr %49, align 8, !tbaa !218
  %51 = icmp eq i32 %47, %50
  br i1 %51, label %52, label %53

52:                                               ; preds = %46
  br label %57

53:                                               ; preds = %46
  %54 = load ptr, ptr %12, align 8, !tbaa !132
  %55 = getelementptr inbounds nuw %struct.CVodeBMemRec, ptr %54, i32 0, i32 16
  %56 = load ptr, ptr %55, align 8, !tbaa !133
  store ptr %56, ptr %12, align 8, !tbaa !132
  br label %43, !llvm.loop !247

57:                                               ; preds = %52, %43
  %58 = load ptr, ptr %12, align 8, !tbaa !132
  %59 = getelementptr inbounds nuw %struct.CVodeBMemRec, ptr %58, i32 0, i32 2
  %60 = load ptr, ptr %59, align 8, !tbaa !135
  store ptr %60, ptr %13, align 8, !tbaa !3
  %61 = load ptr, ptr %13, align 8, !tbaa !3
  %62 = call i32 @CVodeGetNumSteps(ptr noundef %61, ptr noundef %14)
  store i32 %62, ptr %15, align 4, !tbaa !9
  %63 = load i64, ptr %14, align 8, !tbaa !7
  %64 = icmp eq i64 %63, 0
  br i1 %64, label %65, label %77

65:                                               ; preds = %57
  %66 = load ptr, ptr %12, align 8, !tbaa !132
  %67 = getelementptr inbounds nuw %struct.CVodeBMemRec, ptr %66, i32 0, i32 2
  %68 = load ptr, ptr %67, align 8, !tbaa !135
  %69 = getelementptr inbounds nuw %struct.CVodeMemRec, ptr %68, i32 0, i32 52
  %70 = getelementptr inbounds [13 x ptr], ptr %69, i64 0, i64 0
  %71 = load ptr, ptr %70, align 8, !tbaa !72
  %72 = load ptr, ptr %9, align 8, !tbaa !72
  call void @N_VScale(double noundef 1.000000e+00, ptr noundef %71, ptr noundef %72)
  %73 = load ptr, ptr %12, align 8, !tbaa !132
  %74 = getelementptr inbounds nuw %struct.CVodeBMemRec, ptr %73, i32 0, i32 14
  %75 = load double, ptr %74, align 8, !tbaa !242
  %76 = load ptr, ptr %8, align 8, !tbaa !139
  store double %75, ptr %76, align 8, !tbaa !71
  br label %82

77:                                               ; preds = %57
  %78 = load ptr, ptr %13, align 8, !tbaa !3
  %79 = load ptr, ptr %8, align 8, !tbaa !139
  %80 = load ptr, ptr %9, align 8, !tbaa !72
  %81 = call i32 @CVodeGetQuad(ptr noundef %78, ptr noundef %79, ptr noundef %80)
  store i32 %81, ptr %15, align 4, !tbaa !9
  br label %82

82:                                               ; preds = %77, %65
  %83 = load i32, ptr %15, align 4, !tbaa !9
  store i32 %83, ptr %5, align 4
  store i32 1, ptr %16, align 4
  br label %84

84:                                               ; preds = %82, %37, %26, %19
  call void @llvm.lifetime.end.p0(i64 4, ptr %15) #5
  call void @llvm.lifetime.end.p0(i64 8, ptr %14) #5
  call void @llvm.lifetime.end.p0(i64 8, ptr %13) #5
  call void @llvm.lifetime.end.p0(i64 8, ptr %12) #5
  call void @llvm.lifetime.end.p0(i64 8, ptr %11) #5
  call void @llvm.lifetime.end.p0(i64 8, ptr %10) #5
  %85 = load i32, ptr %5, align 4
  ret i32 %85
}