; Function Attrs: nounwind uwtable
define i32 @CVodeGetQuadB(ptr noundef %0, i32 noundef %1, ptr noundef %2, ptr noundef %3) local_unnamed_addr #0 {
  %5 = alloca i64, align 8
  call void @llvm.lifetime.start.p0(i64 8, ptr nonnull %5) #8
  %6 = icmp eq ptr %0, null
  br i1 %6, label %7, label %8

7:                                                ; preds = %4
  tail call void (ptr, i32, ptr, ptr, ptr, ...) @cvProcessError(ptr noundef null, i32 noundef -21, ptr noundef nonnull @.str, ptr noundef nonnull @.str.32, ptr noundef nonnull @.str.2) #8
  br label %37

8:                                                ; preds = %4
  %9 = getelementptr inbounds nuw i8, ptr %0, i64 2200
  %10 = load i32, ptr %9, align 8, !tbaa !47
  %11 = icmp eq i32 %10, 0
  br i1 %11, label %12, label %13

12:                                               ; preds = %8
  tail call void (ptr, i32, ptr, ptr, ptr, ...) @cvProcessError(ptr noundef nonnull %0, i32 noundef -101, ptr noundef nonnull @.str, ptr noundef nonnull @.str.32, ptr noundef nonnull @.str.7) #8
  br label %37

13:                                               ; preds = %8
  %14 = getelementptr inbounds nuw i8, ptr %0, i64 2192
  %15 = load ptr, ptr %14, align 8, !tbaa !3
  %16 = getelementptr inbounds nuw i8, ptr %15, i64 40
  %17 = load i32, ptr %16, align 8, !tbaa !42
  %.not = icmp slt i32 %1, %17
  br i1 %.not, label %19, label %18

18:                                               ; preds = %13
  tail call void (ptr, i32, ptr, ptr, ptr, ...) @cvProcessError(ptr noundef nonnull %0, i32 noundef -22, ptr noundef nonnull @.str, ptr noundef nonnull @.str.32, ptr noundef nonnull @.str.14) #8
  br label %37

19:                                               ; preds = %13
  %20 = getelementptr inbounds nuw i8, ptr %15, i64 32
  br label %.lr.ph

.lr.ph:                                           ; preds = %.lr.ph, %19
  %.024.sink.in = phi ptr [ %23, %.lr.ph ], [ %20, %19 ]
  %.024.sink = load ptr, ptr %.024.sink.in, align 8, !tbaa !122, !nonnull !204, !noundef !204
  %21 = load i32, ptr %.024.sink, align 8, !tbaa !203
  %22 = icmp eq i32 %1, %21
  %23 = getelementptr inbounds nuw i8, ptr %.024.sink, i64 120
  br i1 %22, label %._crit_edge, label %.lr.ph

._crit_edge:                                      ; preds = %.lr.ph
  %24 = getelementptr inbounds nuw i8, ptr %.024.sink, i64 16
  %25 = load ptr, ptr %24, align 8, !tbaa !123
  %26 = call i32 @CVodeGetNumSteps(ptr noundef %25, ptr noundef nonnull %5) #8
  %27 = load i64, ptr %5, align 8, !tbaa !230
  %28 = icmp eq i64 %27, 0
  br i1 %28, label %29, label %35

29:                                               ; preds = %._crit_edge
  %30 = load ptr, ptr %24, align 8, !tbaa !123
  %31 = getelementptr inbounds nuw i8, ptr %30, i64 464
  %32 = load ptr, ptr %31, align 8, !tbaa !69
  call void @N_VScale(double noundef 1.000000e+00, ptr noundef %32, ptr noundef %3) #8
  %33 = getelementptr inbounds nuw i8, ptr %.024.sink, i64 104
  %34 = load double, ptr %33, align 8, !tbaa !215
  store double %34, ptr %2, align 8, !tbaa !90
  br label %37

35:                                               ; preds = %._crit_edge
  %36 = call i32 @CVodeGetQuad(ptr noundef %25, ptr noundef %2, ptr noundef %3) #8
  br label %37

37:                                               ; preds = %29, %35, %18, %12, %7
  %.023 = phi i32 [ -21, %7 ], [ -101, %12 ], [ -22, %18 ], [ %26, %29 ], [ %36, %35 ]
  call void @llvm.lifetime.end.p0(i64 8, ptr nonnull %5) #8
  ret i32 %.023
}